target datalayout = "e-m:e-p270:32:32-p271:32:32-p272:64:64-i64:64-i128:128-f80:128-n8:16:32:64-S128"
target triple = "x86_64-pc-linux-gnu"

%struct.Curl_cfilter = type { ptr, ptr, ptr, ptr, i32, i8 }
%struct.cf_call_data = type { ptr }
%struct.cf_h2_proxy_ctx = type { ptr, %struct.cf_call_data, %struct.bufq, %struct.bufq, %struct.tunnel_stream, i32, i32, i8 }
%struct.bufq = type { ptr, ptr, ptr, ptr, i64, i64, i64, i32 }
%struct.tunnel_stream = type { ptr, %struct.bufq, %struct.bufq, ptr, i32, i32, i32, i8 }

; Function Attrs: nounwind uwtable
define internal i32 @tunnel_recv_callback(ptr noundef %0, i8 noundef zeroext %1, i32 noundef %2, ptr noundef %3, i64 noundef %4, ptr noundef %5) #0 {
  %7 = alloca i32, align 4
  %8 = alloca ptr, align 8
  %9 = alloca i8, align 1
  %10 = alloca i32, align 4
  %11 = alloca ptr, align 8
  %12 = alloca i64, align 8
  %13 = alloca ptr, align 8
  %14 = alloca ptr, align 8
  %15 = alloca ptr, align 8
  %16 = alloca i64, align 8
  %17 = alloca i32, align 4
  %18 = alloca i32, align 4
  store ptr %0, ptr %8, align 8, !tbaa !131
  store i8 %1, ptr %9, align 1, !tbaa !132
  store i32 %2, ptr %10, align 4, !tbaa !22
  store ptr %3, ptr %11, align 8, !tbaa !117
  store i64 %4, ptr %12, align 8, !tbaa !41
  store ptr %5, ptr %13, align 8, !tbaa !116
  call void @llvm.lifetime.start.p0(i64 8, ptr %14) #6
  %19 = load ptr, ptr %13, align 8, !tbaa !116
  store ptr %19, ptr %14, align 8, !tbaa !4
  call void @llvm.lifetime.start.p0(i64 8, ptr %15) #6
  %20 = load ptr, ptr %14, align 8, !tbaa !4
  %21 = getelementptr inbounds nuw %struct.Curl_cfilter, ptr %20, i32 0, i32 2
  %22 = load ptr, ptr %21, align 8, !tbaa !11
  store ptr %22, ptr %15, align 8, !tbaa !16
  call void @llvm.lifetime.start.p0(i64 8, ptr %16) #6
  call void @llvm.lifetime.start.p0(i64 4, ptr %17) #6
  br label %23

23:                                               ; preds = %6
  br label %24

24:                                               ; preds = %23
  br label %25

25:                                               ; preds = %24
  %26 = load i32, ptr %10, align 4, !tbaa !22
  %27 = load ptr, ptr %15, align 8, !tbaa !16
  %28 = getelementptr inbounds nuw %struct.cf_h2_proxy_ctx, ptr %27, i32 0, i32 4
  %29 = getelementptr inbounds nuw %struct.tunnel_stream, ptr %28, i32 0, i32 4
  %30 = load i32, ptr %29, align 8, !tbaa !48
  %31 = icmp ne i32 %26, %30
  br i1 %31, label %32, label %33

32:                                               ; preds = %25
  store i32 -902, ptr %7, align 4
  store i32 1, ptr %18, align 4
  br label %51

33:                                               ; preds = %25
  %34 = load ptr, ptr %15, align 8, !tbaa !16
  %35 = getelementptr inbounds nuw %struct.cf_h2_proxy_ctx, ptr %34, i32 0, i32 4
  %36 = getelementptr inbounds nuw %struct.tunnel_stream, ptr %35, i32 0, i32 1
  %37 = load ptr, ptr %11, align 8, !tbaa !117
  %38 = load i64, ptr %12, align 8, !tbaa !41
  %39 = call i64 @Curl_bufq_write(ptr noundef %36, ptr noundef %37, i64 noundef %38, ptr noundef %17)
  store i64 %39, ptr %16, align 8, !tbaa !41
  %40 = load i64, ptr %16, align 8, !tbaa !41
  %41 = icmp slt i64 %40, 0
  br i1 %41, label %42, label %47

42:                                               ; preds = %33
  %43 = load i32, ptr %17, align 4, !tbaa !22
  %44 = icmp ne i32 %43, 81
  br i1 %44, label %45, label %46

45:                                               ; preds = %42
  store i32 -902, ptr %7, align 4
  store i32 1, ptr %18, align 4
  br label %51

46:                                               ; preds = %42
  store i64 0, ptr %16, align 8, !tbaa !41
  br label %47

47:                                               ; preds = %46, %33
  br label %48

48:                                               ; preds = %47
  br label %49

49:                                               ; preds = %48
  br label %50

50:                                               ; preds = %49
  store i32 0, ptr %7, align 4
  store i32 1, ptr %18, align 4
  br label %51

51:                                               ; preds = %50, %45, %32
  call void @llvm.lifetime.end.p0(i64 4, ptr %17) #6
  call void @llvm.lifetime.end.p0(i64 8, ptr %16) #6
  call void @llvm.lifetime.end.p0(i64 8, ptr %15) #6
  call void @llvm.lifetime.end.p0(i64 8, ptr %14) #6
  %52 = load i32, ptr %7, align 4
  ret i32 %52
}