; Function Attrs: nounwind uwtable
define internal range(i32 -902, 1) i32 @tunnel_recv_callback(ptr readnone captures(none) %0, i8 zeroext %1, i32 noundef %2, ptr noundef %3, i64 noundef %4, ptr noundef readonly captures(none) %5) #0 {
  %7 = alloca i32, align 4
  %8 = getelementptr inbounds nuw i8, ptr %5, i64 16
  %9 = load ptr, ptr %8, align 8, !tbaa !4
  call void @llvm.lifetime.start.p0(i64 4, ptr nonnull %7) #7
  %10 = getelementptr inbounds nuw i8, ptr %9, i64 288
  %11 = load i32, ptr %10, align 8, !tbaa !133
  %.not = icmp eq i32 %2, %11
  br i1 %.not, label %12, label %17

12:                                               ; preds = %6
  %13 = getelementptr inbounds nuw i8, ptr %9, i64 152
  %14 = call i64 @Curl_bufq_write(ptr noundef nonnull %13, ptr noundef %3, i64 noundef %4, ptr noundef nonnull %7) #7
  %15 = icmp sgt i64 %14, -1
  %16 = load i32, ptr %7, align 4
  %.not8 = icmp eq i32 %16, 81
  %or.cond = select i1 %15, i1 true, i1 %.not8
  %spec.select = select i1 %or.cond, i32 0, i32 -902
  br label %17

17:                                               ; preds = %12, %6
  %.0 = phi i32 [ -902, %6 ], [ %spec.select, %12 ]
  call void @llvm.lifetime.end.p0(i64 4, ptr nonnull %7) #7
  ret i32 %.0
}